; Function Attrs: nounwind uwtable
define i32 @ossl_decoder_get_number(ptr noundef readonly captures(address_is_null) %0) local_unnamed_addr #2 {
  %.not = icmp eq ptr %0, null
  br i1 %.not, label %2, label %3, !prof !48

2:                                                ; preds = %1
  tail call void @ERR_new() #8
  tail call void @ERR_set_debug(ptr noundef nonnull @.str, i32 noundef 498, ptr noundef nonnull @__func__.ossl_decoder_get_number) #8
  tail call void (i32, i32, ptr, ...) @ERR_set_error(i32 noundef 60, i32 noundef 786690, ptr noundef null) #8
  br label %6

3:                                                ; preds = %1
  %4 = getelementptr inbounds nuw i8, ptr %0, i64 8
  %5 = load i32, ptr %4, align 8, !tbaa !21
  br label %6

6:                                                ; preds = %3, %2
  %.0 = phi i32 [ %5, %3 ], [ 0, %2 ]
  ret i32 %.0
}